; Function Attrs: nounwind uwtable
define ptr @l_Lean_RBMap_findD___rarg(ptr noundef %0, ptr noundef %1, ptr noundef %2, ptr noundef %3) local_unnamed_addr #1 {
  %5 = tail call ptr @l_Lean_RBNode_find___rarg(ptr noundef %0, ptr nonnull poison, ptr noundef %1, ptr noundef %2)
  %6 = ptrtoint ptr %5 to i64
  %7 = and i64 %6, 1
  %.not.i12 = icmp eq i64 %7, 0
  br i1 %.not.i12, label %11, label %8

8:                                                ; preds = %4
  %9 = lshr i64 %6, 1
  %10 = trunc i64 %9 to i32
  br label %lean_obj_tag.exit

11:                                               ; preds = %4
  %12 = getelementptr i8, ptr %5, i64 4
  %.val.i = load i32, ptr %12, align 4
  %13 = lshr i32 %.val.i, 24
  br label %lean_obj_tag.exit

lean_obj_tag.exit:                                ; preds = %8, %11
  %.0.i = phi i32 [ %10, %8 ], [ %13, %11 ]
  %14 = icmp eq i32 %.0.i, 0
  br i1 %14, label %15, label %24

15:                                               ; preds = %lean_obj_tag.exit
  %16 = ptrtoint ptr %3 to i64
  %17 = and i64 %16, 1
  %.not19 = icmp eq i64 %17, 0
  br i1 %.not19, label %18, label %lean_inc.exit11

18:                                               ; preds = %15
  %.val.i13 = load i32, ptr %3, align 4, !tbaa !4
  %19 = icmp sgt i32 %.val.i13, 0
  br i1 %19, label %20, label %22, !prof !9

20:                                               ; preds = %18
  %21 = add nuw i32 %.val.i13, 1
  store i32 %21, ptr %3, align 4, !tbaa !4
  br label %lean_inc.exit11

22:                                               ; preds = %18
  %.not.i14 = icmp eq i32 %.val.i13, 0
  br i1 %.not.i14, label %lean_inc.exit11, label %23

23:                                               ; preds = %22
  tail call void @lean_inc_ref_cold(ptr noundef nonnull %3) #9
  br label %lean_inc.exit11

24:                                               ; preds = %lean_obj_tag.exit
  %25 = getelementptr inbounds nuw i8, ptr %5, i64 8
  %26 = load ptr, ptr %25, align 8, !tbaa !10
  %27 = ptrtoint ptr %26 to i64
  %28 = and i64 %27, 1
  %.not = icmp eq i64 %28, 0
  br i1 %.not, label %29, label %lean_inc.exit

29:                                               ; preds = %24
  %.val.i15 = load i32, ptr %26, align 4, !tbaa !4
  %30 = icmp sgt i32 %.val.i15, 0
  br i1 %30, label %31, label %33, !prof !9

31:                                               ; preds = %29
  %32 = add nuw i32 %.val.i15, 1
  store i32 %32, ptr %26, align 4, !tbaa !4
  br label %lean_inc.exit

33:                                               ; preds = %29
  %.not.i16 = icmp eq i32 %.val.i15, 0
  br i1 %.not.i16, label %lean_inc.exit, label %34

34:                                               ; preds = %33
  tail call void @lean_inc_ref_cold(ptr noundef nonnull %26) #9
  br label %lean_inc.exit

lean_inc.exit:                                    ; preds = %34, %33, %31, %24
  br i1 %.not.i12, label %35, label %lean_inc.exit11

35:                                               ; preds = %lean_inc.exit
  %36 = load i32, ptr %5, align 4, !tbaa !4
  %37 = icmp sgt i32 %36, 1
  br i1 %37, label %38, label %40, !prof !9

38:                                               ; preds = %35
  %39 = add nsw i32 %36, -1
  store i32 %39, ptr %5, align 4, !tbaa !4
  br label %lean_inc.exit11

40:                                               ; preds = %35
  %.not.i = icmp eq i32 %36, 0
  br i1 %.not.i, label %lean_inc.exit11, label %41

41:                                               ; preds = %40
  tail call void @lean_dec_ref_cold(ptr noundef nonnull %5) #9
  br label %lean_inc.exit11

lean_inc.exit11:                                  ; preds = %lean_inc.exit, %38, %40, %41, %15, %20, %22, %23
  %.0 = phi ptr [ %3, %23 ], [ %3, %22 ], [ %3, %20 ], [ %3, %15 ], [ %26, %41 ], [ %26, %40 ], [ %26, %38 ], [ %26, %lean_inc.exit ]
  ret ptr %.0
}